; Function Attrs: mustprogress nounwind uwtable
define void @_ZN6duckdb17ColumnWriterStateD2Ev(ptr noundef nonnull align 8 captures(none) dereferenceable(112) initializes((0, 8)) %0) unnamed_addr #3 align 2 personality ptr @__gxx_personality_v0 {
  store ptr getelementptr inbounds nuw inrange(-16, 16) (i8, ptr @_ZTVN6duckdb17ColumnWriterStateE, i64 16), ptr %0, align 8, !tbaa !19
  %2 = getelementptr inbounds nuw i8, ptr %0, i64 56
  %3 = load ptr, ptr %2, align 8, !tbaa !56
  %.not.i.i = icmp eq ptr %3, null
  br i1 %.not.i.i, label %_ZNSt13_Bvector_baseISaIbEED2Ev.exit, label %4

4:                                                ; preds = %1
  %5 = getelementptr inbounds nuw i8, ptr %0, i64 88
  %6 = load ptr, ptr %5, align 8, !tbaa !59
  %7 = ptrtoint ptr %6 to i64
  %8 = ptrtoint ptr %3 to i64
  %9 = sub i64 %7, %8
  %10 = ashr exact i64 %9, 3
  %11 = sub nsw i64 0, %10
  %12 = getelementptr inbounds i64, ptr %6, i64 %11
  tail call void @_ZdlPv(ptr noundef %12) #27
  store ptr null, ptr %2, align 8
  %.sroa.4.0..sroa_idx.i.i.i = getelementptr inbounds nuw i8, ptr %0, i64 64
  store i32 0, ptr %.sroa.4.0..sroa_idx.i.i.i, align 8
  %.sroa.51.0..sroa_idx.i.i.i = getelementptr inbounds nuw i8, ptr %0, i64 72
  store ptr null, ptr %.sroa.51.0..sroa_idx.i.i.i, align 8
  %.sroa.6.0..sroa_idx.i.i.i = getelementptr inbounds nuw i8, ptr %0, i64 80
  store i32 0, ptr %.sroa.6.0..sroa_idx.i.i.i, align 8
  store ptr null, ptr %5, align 8
  br label %_ZNSt13_Bvector_baseISaIbEED2Ev.exit

_ZNSt13_Bvector_baseISaIbEED2Ev.exit:             ; preds = %1, %4
  %13 = getelementptr inbounds nuw i8, ptr %0, i64 32
  %14 = load ptr, ptr %13, align 8, !tbaa !62
  %.not.i.i.i = icmp eq ptr %14, null
  br i1 %.not.i.i.i, label %_ZNSt6vectorItSaItEED2Ev.exit, label %15

15:                                               ; preds = %_ZNSt13_Bvector_baseISaIbEED2Ev.exit
  tail call void @_ZdlPv(ptr noundef nonnull %14) #27
  br label %_ZNSt6vectorItSaItEED2Ev.exit

_ZNSt6vectorItSaItEED2Ev.exit:                    ; preds = %_ZNSt13_Bvector_baseISaIbEED2Ev.exit, %15
  %16 = getelementptr inbounds nuw i8, ptr %0, i64 8
  %17 = load ptr, ptr %16, align 8, !tbaa !62
  %.not.i.i.i1 = icmp eq ptr %17, null
  br i1 %.not.i.i.i1, label %_ZNSt6vectorItSaItEED2Ev.exit2, label %18

18:                                               ; preds = %_ZNSt6vectorItSaItEED2Ev.exit
  tail call void @_ZdlPv(ptr noundef nonnull %17) #27
  br label %_ZNSt6vectorItSaItEED2Ev.exit2

_ZNSt6vectorItSaItEED2Ev.exit2:                   ; preds = %_ZNSt6vectorItSaItEED2Ev.exit, %18
  ret void
}